target datalayout = "e-m:e-p270:32:32-p271:32:32-p272:64:64-i64:64-i128:128-f80:128-n8:16:32:64-S128"
target triple = "x86_64-pc-linux-gnu"

%"class.std::__cxx11::basic_string" = type { %"struct.std::__cxx11::basic_string<char>::_Alloc_hider", i64, %union.anon }
%"struct.std::__cxx11::basic_string<char>::_Alloc_hider" = type { ptr }
%union.anon = type { i64, [8 x i8] }
%class.cmOutputConverter = type <{ ptr, %class.cmStateSnapshot, i8, [7 x i8], %"class.std::__cxx11::basic_string", %"class.std::__cxx11::basic_string", i32, [4 x i8] }>
%class.cmStateSnapshot = type { ptr, %"class.cmLinkedTree<cmStateDetail::SnapshotDataType>::iterator" }
%"class.cmLinkedTree<cmStateDetail::SnapshotDataType>::iterator" = type { ptr, i64 }

; Function Attrs: mustprogress uwtable
define dso_local void @_ZN17cmOutputConverter30ComputeRelativePathTopRelationEv(ptr noundef nonnull align 8 dereferenceable(108) %0) #4 align 2 {
  %2 = alloca ptr, align 8
  store ptr %0, ptr %2, align 8
  %3 = load ptr, ptr %2, align 8
  %4 = getelementptr inbounds %class.cmOutputConverter, ptr %3, i32 0, i32 4
  %5 = getelementptr inbounds %class.cmOutputConverter, ptr %3, i32 0, i32 5
  %6 = call noundef zeroext i1 @_ZN5cmsys11SystemTools11ComparePathERKNSt7__cxx1112basic_stringIcSt11char_traitsIcESaIcEEES8_(ptr noundef nonnull align 8 dereferenceable(32) %4, ptr noundef nonnull align 8 dereferenceable(32) %5)
  br i1 %6, label %7, label %9

7:                                                ; preds = %1
  %8 = getelementptr inbounds %class.cmOutputConverter, ptr %3, i32 0, i32 6
  store i32 3, ptr %8, align 8
  br label %25

9:                                                ; preds = %1
  %10 = getelementptr inbounds %class.cmOutputConverter, ptr %3, i32 0, i32 5
  %11 = getelementptr inbounds %class.cmOutputConverter, ptr %3, i32 0, i32 4
  %12 = call noundef zeroext i1 @_ZN5cmsys11SystemTools14IsSubDirectoryERKNSt7__cxx1112basic_stringIcSt11char_traitsIcESaIcEEES8_(ptr noundef nonnull align 8 dereferenceable(32) %10, ptr noundef nonnull align 8 dereferenceable(32) %11)
  br i1 %12, label %13, label %15

13:                                               ; preds = %9
  %14 = getelementptr inbounds %class.cmOutputConverter, ptr %3, i32 0, i32 6
  store i32 1, ptr %14, align 8
  br label %24

15:                                               ; preds = %9
  %16 = getelementptr inbounds %class.cmOutputConverter, ptr %3, i32 0, i32 4
  %17 = getelementptr inbounds %class.cmOutputConverter, ptr %3, i32 0, i32 5
  %18 = call noundef zeroext i1 @_ZN5cmsys11SystemTools14IsSubDirectoryERKNSt7__cxx1112basic_stringIcSt11char_traitsIcESaIcEEES8_(ptr noundef nonnull align 8 dereferenceable(32) %16, ptr noundef nonnull align 8 dereferenceable(32) %17)
  br i1 %18, label %19, label %21

19:                                               ; preds = %15
  %20 = getelementptr inbounds %class.cmOutputConverter, ptr %3, i32 0, i32 6
  store i32 2, ptr %20, align 8
  br label %23

21:                                               ; preds = %15
  %22 = getelementptr inbounds %class.cmOutputConverter, ptr %3, i32 0, i32 6
  store i32 0, ptr %22, align 8
  br label %23

23:                                               ; preds = %21, %19
  br label %24

24:                                               ; preds = %23, %13
  br label %25

25:                                               ; preds = %24, %7
  ret void
}