; Function Attrs: mustprogress uwtable
define dso_local void @_ZN17cmOutputConverter30ComputeRelativePathTopRelationEv(ptr noundef nonnull align 8 dereferenceable(108) %0) local_unnamed_addr #3 align 2 {
  %2 = getelementptr inbounds i8, ptr %0, i64 40
  %3 = getelementptr inbounds i8, ptr %0, i64 72
  %4 = tail call noundef zeroext i1 @_ZN5cmsys11SystemTools11ComparePathERKNSt7__cxx1112basic_stringIcSt11char_traitsIcESaIcEEES8_(ptr noundef nonnull align 8 dereferenceable(32) %2, ptr noundef nonnull align 8 dereferenceable(32) %3)
  br i1 %4, label %5, label %7

5:                                                ; preds = %1
  %6 = getelementptr inbounds i8, ptr %0, i64 104
  store i32 3, ptr %6, align 8
  br label %16

7:                                                ; preds = %1
  %8 = tail call noundef zeroext i1 @_ZN5cmsys11SystemTools14IsSubDirectoryERKNSt7__cxx1112basic_stringIcSt11char_traitsIcESaIcEEES8_(ptr noundef nonnull align 8 dereferenceable(32) %3, ptr noundef nonnull align 8 dereferenceable(32) %2)
  br i1 %8, label %9, label %11

9:                                                ; preds = %7
  %10 = getelementptr inbounds i8, ptr %0, i64 104
  store i32 1, ptr %10, align 8
  br label %16

11:                                               ; preds = %7
  %12 = tail call noundef zeroext i1 @_ZN5cmsys11SystemTools14IsSubDirectoryERKNSt7__cxx1112basic_stringIcSt11char_traitsIcESaIcEEES8_(ptr noundef nonnull align 8 dereferenceable(32) %2, ptr noundef nonnull align 8 dereferenceable(32) %3)
  %13 = getelementptr inbounds i8, ptr %0, i64 104
  br i1 %12, label %14, label %15

14:                                               ; preds = %11
  store i32 2, ptr %13, align 8
  br label %16

15:                                               ; preds = %11
  store i32 0, ptr %13, align 8
  br label %16

16:                                               ; preds = %9, %15, %14, %5
  ret void
}